target datalayout = "e-m:e-p270:32:32-p271:32:32-p272:64:64-i64:64-i128:128-f80:128-n8:16:32:64-S128"
target triple = "x86_64-pc-linux-gnu"

%struct.redisServer = type { i32, i64, ptr, ptr, ptr, i32, i32, i32, i32, i32, ptr, ptr, ptr, ptr, ptr, i32, i32, i32, i32, i64, i32, i32, i32, i32, ptr, i32, i32, [41 x i8], i32, i64, i32, i32, i32, ptr, ptr, i32, i32, i64, ptr, ptr, ptr, ptr, [2 x i32], i32, i32, i32, i32, i32, i32, [16 x ptr], i32, ptr, ptr, i32, [8 x %struct.connListener], i32, %struct.connListener, ptr, ptr, ptr, ptr, ptr, ptr, ptr, ptr, ptr, ptr, i32, ptr, i32, ptr, [3 x %struct.pause_event], [256 x i8], ptr, i64, i32, i32, [128 x i32], i32, i32, i64, i32, i32, i32, i32, i32, i64, i64, i64, i64, i64, i64, i64, i64, i64, i64, double, i64, i64, i64, i64, i64, i64, i64, i64, i64, i64, i64, i64, i64, i64, i64, i64, i64, i64, i64, i64, i64, double, i64, i64, i64, i64, i64, ptr, i64, i64, i64, %struct.malloc_stats, i64, i64, i64, i64, i64, i64, i64, i64, i64, i64, i64, i64, double, [4 x i64], i64, i64, i64, i64, [128 x i64], [128 x i64], i64, i64, [7 x %struct.anon], i64, i64, i64, i64, i64, i64, [4 x %struct.durationStats], i32, i32, i32, i32, i32, i32, i32, i32, i32, i32, i32, i32, i64, i32, i32, i32, i32, i64, i64, i32, i32, i32, i32, i32, ptr, [3 x %struct.clientBufferLimitsConfig], i32, i32, i32, ptr, i32, i32, i32, i32, i32, i32, ptr, ptr, i32, i32, i64, i64, i64, i64, i64, i32, i32, ptr, i32, i32, i64, i64, i64, i64, i64, i32, i32, i64, i32, i32, i32, i32, i32, i32, i32, i32, ptr, i32, i64, i64, i64, i64, i32, ptr, i32, ptr, i32, i32, i32, i64, i64, i64, i64, i32, i32, i32, i32, i32, i32, ptr, i32, i32, ptr, i32, i32, i32, [2 x i32], i32, %struct.redisOpArray, i32, ptr, i32, ptr, i32, i32, i32, i32, i32, i32, i32, [41 x i8], [41 x i8], i64, i64, i64, i64, i32, i32, ptr, i64, i64, %struct.replDataBuf, i64, i64, i32, i32, i32, i32, i32, i32, i32, i32, i32, i64, ptr, i64, ptr, ptr, ptr, i32, i32, ptr, ptr, i32, i32, i32, i64, i64, i64, i64, ptr, ptr, i32, ptr, i64, i32, i32, i32, i64, i32, i32, i32, i32, ptr, i32, i32, [41 x i8], i64, i32, ptr, i32, i32, i64, i64, i32, i32, i32, i32, i32, i64, [3 x i32], i32, i32, i32, [10 x i32], ptr, ptr, i32, i64, ptr, ptr, i32, i32, i32, i32, i64, i64, i64, i64, i64, i64, i64, i64, i64, i64, i32, i32, i64, i64, i32, i64, i64, i64, i64, i64, ptr, ptr, i32, ptr, i32, i32, i32, i32, i64, i64, ptr, ptr, i32, i32, i32, i32, i32, ptr, ptr, ptr, i32, i32, i32, i32, i32, i32, i32, i64, i32, i32, i64, i32, i32, i32, i32, i32, i32, i32, i64, ptr, ptr, i64, ptr, i32, %struct.aclInfo, i32, i64, i32, i32, i32, %struct.redisTLSContextConfig, ptr, ptr, ptr, ptr, ptr, i64, i32, ptr, i32, i32, i32, i64, i32, ptr }
%struct.connListener = type { [16 x i32], i32, ptr, i32, i32, ptr, ptr }
%struct.pause_event = type { i32, i64 }
%struct.malloc_stats = type { i64, i64, i64, i64, i64, i64, i64, i64, i64, i64, i64 }
%struct.anon = type { i64, i64, [16 x i64], i32 }
%struct.durationStats = type { i64, i64, i64 }
%struct.clientBufferLimitsConfig = type { i64, i64, i64 }
%struct.redisOpArray = type { ptr, i32, i32 }
%struct.replDataBuf = type { ptr, i64, i64, i64, i64 }
%struct.aclInfo = type { i64, i64, i64, i64 }
%struct.redisTLSContextConfig = type { ptr, ptr, ptr, ptr, ptr, ptr, ptr, ptr, ptr, ptr, ptr, ptr, i32, i32, i32, i32 }
%struct.aofInfo = type { ptr, i64, i32, i64, i64 }
%struct.aofManifest = type { ptr, ptr, ptr, i64, i64, i32 }
%struct.list = type { ptr, ptr, ptr, ptr, ptr, i64 }
%struct.listIter = type { ptr, i32 }
%struct.listNode = type { ptr, ptr, ptr }

@.str.1 = private unnamed_addr constant [6 x i8] c"aof.c\00", align 1
@server = external global %struct.redisServer, align 8
@.str.52 = private unnamed_addr constant [36 x i8] c"ai->file_type == AOF_FILE_TYPE_HIST\00", align 1
@.str.53 = private unnamed_addr constant [47 x i8] c"Removing the history file %s in the background\00", align 1

; Function Attrs: nounwind uwtable
define dso_local i32 @persistAofManifest(ptr noundef %0) #0 {
  %2 = alloca i32, align 4
  %3 = alloca ptr, align 8
  %4 = alloca ptr, align 8
  %5 = alloca i32, align 4
  store ptr %0, ptr %3, align 8, !tbaa !5
  %6 = load ptr, ptr %3, align 8, !tbaa !5
  %7 = getelementptr inbounds nuw %struct.aofManifest, ptr %6, i32 0, i32 5
  %8 = load i32, ptr %7, align 8, !tbaa !75
  %9 = icmp eq i32 %8, 0
  br i1 %9, label %10, label %11

10:                                               ; preds = %1
  store i32 0, ptr %2, align 4
  br label %24

11:                                               ; preds = %1
  call void @llvm.lifetime.start.p0(i64 8, ptr %4) #12
  %12 = load ptr, ptr %3, align 8, !tbaa !5
  %13 = call ptr @getAofManifestAsString(ptr noundef %12)
  store ptr %13, ptr %4, align 8, !tbaa !18
  call void @llvm.lifetime.start.p0(i64 4, ptr %5) #12
  %14 = load ptr, ptr %4, align 8, !tbaa !18
  %15 = call i32 @writeAofManifestFile(ptr noundef %14)
  store i32 %15, ptr %5, align 4, !tbaa !22
  %16 = load ptr, ptr %4, align 8, !tbaa !18
  call void @sdsfree(ptr noundef %16)
  %17 = load i32, ptr %5, align 4, !tbaa !22
  %18 = icmp eq i32 %17, 0
  br i1 %18, label %19, label %22

19:                                               ; preds = %11
  %20 = load ptr, ptr %3, align 8, !tbaa !5
  %21 = getelementptr inbounds nuw %struct.aofManifest, ptr %20, i32 0, i32 5
  store i32 0, ptr %21, align 8, !tbaa !75
  br label %22

22:                                               ; preds = %19, %11
  %23 = load i32, ptr %5, align 4, !tbaa !22
  store i32 %23, ptr %2, align 4
  call void @llvm.lifetime.end.p0(i64 4, ptr %5) #12
  call void @llvm.lifetime.end.p0(i64 8, ptr %4) #12
  br label %24

24:                                               ; preds = %22, %10
  %25 = load i32, ptr %2, align 4
  ret i32 %25
}

; Function Attrs: nounwind uwtable
define dso_local i32 @aofDelHistoryFiles() #0 {
  %1 = alloca i32, align 4
  %2 = alloca ptr, align 8
  %3 = alloca %struct.listIter, align 8
  %4 = alloca ptr, align 8
  %5 = alloca ptr, align 8
  %6 = load ptr, ptr getelementptr inbounds nuw (%struct.redisServer, ptr @server, i32 0, i32 225), align 8, !tbaa !65
  %7 = icmp eq ptr %6, null
  br i1 %7, label %18, label %8

8:                                                ; preds = %0
  %9 = load i32, ptr getelementptr inbounds nuw (%struct.redisServer, ptr @server, i32 0, i32 226), align 8, !tbaa !82
  %10 = icmp eq i32 %9, 1
  br i1 %10, label %18, label %11

11:                                               ; preds = %8
  %12 = load ptr, ptr getelementptr inbounds nuw (%struct.redisServer, ptr @server, i32 0, i32 225), align 8, !tbaa !65
  %13 = getelementptr inbounds nuw %struct.aofManifest, ptr %12, i32 0, i32 2
  %14 = load ptr, ptr %13, align 8, !tbaa !28
  %15 = getelementptr inbounds nuw %struct.list, ptr %14, i32 0, i32 5
  %16 = load i64, ptr %15, align 8, !tbaa !77
  %17 = icmp ne i64 %16, 0
  br i1 %17, label %19, label %18

18:                                               ; preds = %11, %8, %0
  store i32 0, ptr %1, align 4
  br label %71

19:                                               ; preds = %11
  call void @llvm.lifetime.start.p0(i64 8, ptr %2) #12
  call void @llvm.lifetime.start.p0(i64 16, ptr %3) #12
  %20 = load ptr, ptr getelementptr inbounds nuw (%struct.redisServer, ptr @server, i32 0, i32 225), align 8, !tbaa !65
  %21 = getelementptr inbounds nuw %struct.aofManifest, ptr %20, i32 0, i32 2
  %22 = load ptr, ptr %21, align 8, !tbaa !28
  call void @listRewind(ptr noundef %22, ptr noundef %3)
  br label %23

23:                                               ; preds = %53, %19
  %24 = call ptr @listNext(ptr noundef %3)
  store ptr %24, ptr %2, align 8, !tbaa !59
  %25 = icmp ne ptr %24, null
  br i1 %25, label %26, label %66

26:                                               ; preds = %23
  call void @llvm.lifetime.start.p0(i64 8, ptr %4) #12
  %27 = load ptr, ptr %2, align 8, !tbaa !59
  %28 = getelementptr inbounds nuw %struct.listNode, ptr %27, i32 0, i32 2
  %29 = load ptr, ptr %28, align 8, !tbaa !60
  store ptr %29, ptr %4, align 8, !tbaa !5
  %30 = load ptr, ptr %4, align 8, !tbaa !5
  %31 = getelementptr inbounds nuw %struct.aofInfo, ptr %30, i32 0, i32 2
  %32 = load i32, ptr %31, align 8, !tbaa !17
  %33 = icmp eq i32 %32, 104
  %34 = xor i1 %33, true
  %35 = xor i1 %34, true
  %36 = zext i1 %35 to i32
  %37 = sext i32 %36 to i64
  %38 = call i64 @llvm.expect.i64(i64 %37, i64 1)
  %39 = icmp ne i64 %38, 0
  br i1 %39, label %40, label %41

40:                                               ; preds = %26
  br label %43

41:                                               ; preds = %26
  call void @_serverAssert(ptr noundef @.str.52, ptr noundef @.str.1, i32 noundef 691)
  call void @abort() #14
  unreachable

42:                                               ; No predecessors!
  br label %43

43:                                               ; preds = %42, %40
  br label %44

44:                                               ; preds = %43
  %45 = load i32, ptr getelementptr inbounds nuw (%struct.redisServer, ptr @server, i32 0, i32 159), align 8, !tbaa !67
  %46 = icmp slt i32 2, %45
  br i1 %46, label %47, label %48

47:                                               ; preds = %44
  br label %53

48:                                               ; preds = %44
  %49 = load ptr, ptr %4, align 8, !tbaa !5
  %50 = getelementptr inbounds nuw %struct.aofInfo, ptr %49, i32 0, i32 0
  %51 = load ptr, ptr %50, align 8, !tbaa !15
  call void (i32, ptr, ...) @_serverLog(i32 noundef 2, ptr noundef @.str.53, ptr noundef %51)
  br label %52

52:                                               ; preds = %48
  br label %53

53:                                               ; preds = %52, %47
  call void @llvm.lifetime.start.p0(i64 8, ptr %5) #12
  %54 = load ptr, ptr getelementptr inbounds nuw (%struct.redisServer, ptr @server, i32 0, i32 196), align 8, !tbaa !66
  %55 = load ptr, ptr %4, align 8, !tbaa !5
  %56 = getelementptr inbounds nuw %struct.aofInfo, ptr %55, i32 0, i32 0
  %57 = load ptr, ptr %56, align 8, !tbaa !15
  %58 = call ptr @makePath(ptr noundef %54, ptr noundef %57)
  store ptr %58, ptr %5, align 8, !tbaa !18
  %59 = load ptr, ptr %5, align 8, !tbaa !18
  %60 = call i32 @bg_unlink(ptr noundef %59)
  %61 = load ptr, ptr %5, align 8, !tbaa !18
  call void @sdsfree(ptr noundef %61)
  %62 = load ptr, ptr getelementptr inbounds nuw (%struct.redisServer, ptr @server, i32 0, i32 225), align 8, !tbaa !65
  %63 = getelementptr inbounds nuw %struct.aofManifest, ptr %62, i32 0, i32 2
  %64 = load ptr, ptr %63, align 8, !tbaa !28
  %65 = load ptr, ptr %2, align 8, !tbaa !59
  call void @listDelNode(ptr noundef %64, ptr noundef %65)
  call void @llvm.lifetime.end.p0(i64 8, ptr %5) #12
  call void @llvm.lifetime.end.p0(i64 8, ptr %4) #12
  br label %23, !llvm.loop !83

66:                                               ; preds = %23
  %67 = load ptr, ptr getelementptr inbounds nuw (%struct.redisServer, ptr @server, i32 0, i32 225), align 8, !tbaa !65
  %68 = getelementptr inbounds nuw %struct.aofManifest, ptr %67, i32 0, i32 5
  store i32 1, ptr %68, align 8, !tbaa !75
  %69 = load ptr, ptr getelementptr inbounds nuw (%struct.redisServer, ptr @server, i32 0, i32 225), align 8, !tbaa !65
  %70 = call i32 @persistAofManifest(ptr noundef %69)
  store i32 %70, ptr %1, align 4
  call void @llvm.lifetime.end.p0(i64 16, ptr %3) #12
  call void @llvm.lifetime.end.p0(i64 8, ptr %2) #12
  br label %71

71:                                               ; preds = %66, %18
  %72 = load i32, ptr %1, align 4
  ret i32 %72
}