; Function Attrs: nounwind uwtable
define dso_local range(i32 -1, 1) i32 @aofDelHistoryFiles() local_unnamed_addr #0 {
  %1 = alloca %struct.listIter, align 8
  %2 = load ptr, ptr getelementptr inbounds nuw (i8, ptr @server, i64 6704), align 8, !tbaa !63
  %3 = icmp eq ptr %2, null
  %4 = load i32, ptr getelementptr inbounds nuw (i8, ptr @server, i64 6712), align 8
  %5 = icmp eq i32 %4, 1
  %or.cond = select i1 %3, i1 true, i1 %5
  br i1 %or.cond, label %40, label %6

6:                                                ; preds = %0
  %7 = getelementptr inbounds nuw i8, ptr %2, i64 16
  %8 = load ptr, ptr %7, align 8, !tbaa !27
  %9 = getelementptr inbounds nuw i8, ptr %8, i64 40
  %10 = load i64, ptr %9, align 8, !tbaa !73
  %.not = icmp eq i64 %10, 0
  br i1 %.not, label %40, label %11

11:                                               ; preds = %6
  call void @llvm.lifetime.start.p0(i64 16, ptr nonnull %1) #20
  call void @listRewind(ptr noundef nonnull %8, ptr noundef nonnull %1) #20
  %12 = call ptr @listNext(ptr noundef nonnull %1) #20
  %.not1011 = icmp eq ptr %12, null
  br i1 %.not1011, label %._crit_edge, label %.lr.ph

.lr.ph:                                           ; preds = %11, %25
  %13 = phi ptr [ %33, %25 ], [ %12, %11 ]
  %14 = getelementptr inbounds nuw i8, ptr %13, i64 16
  %15 = load ptr, ptr %14, align 8, !tbaa !58
  %16 = getelementptr inbounds nuw i8, ptr %15, i64 16
  %17 = load i32, ptr %16, align 8, !tbaa !15
  %18 = icmp eq i32 %17, 104
  br i1 %18, label %20, label %19, !prof !71

19:                                               ; preds = %.lr.ph
  call void @_serverAssert(ptr noundef nonnull @.str.52, ptr noundef nonnull @.str.1, i32 noundef 691) #20
  call void @abort() #21
  unreachable

20:                                               ; preds = %.lr.ph
  %21 = load i32, ptr getelementptr inbounds nuw (i8, ptr @server, i64 6288), align 8, !tbaa !65
  %22 = icmp sgt i32 %21, 2
  br i1 %22, label %25, label %23

23:                                               ; preds = %20
  %24 = load ptr, ptr %15, align 8, !tbaa !6
  call void (i32, ptr, ...) @_serverLog(i32 noundef 2, ptr noundef nonnull @.str.53, ptr noundef %24) #20
  br label %25

25:                                               ; preds = %20, %23
  %26 = load ptr, ptr getelementptr inbounds nuw (i8, ptr @server, i64 6536), align 8, !tbaa !64
  %27 = load ptr, ptr %15, align 8, !tbaa !6
  %28 = call ptr @makePath(ptr noundef %26, ptr noundef %27) #20
  %29 = call i32 @bg_unlink(ptr noundef %28) #20
  call void @sdsfree(ptr noundef %28) #20
  %30 = load ptr, ptr getelementptr inbounds nuw (i8, ptr @server, i64 6704), align 8, !tbaa !63
  %31 = getelementptr inbounds nuw i8, ptr %30, i64 16
  %32 = load ptr, ptr %31, align 8, !tbaa !27
  call void @listDelNode(ptr noundef %32, ptr noundef nonnull %13) #20
  %33 = call ptr @listNext(ptr noundef nonnull %1) #20
  %.not10 = icmp eq ptr %33, null
  br i1 %.not10, label %._crit_edge, label %.lr.ph, !llvm.loop !78

._crit_edge:                                      ; preds = %25, %11
  %34 = load ptr, ptr getelementptr inbounds nuw (i8, ptr @server, i64 6704), align 8, !tbaa !63
  %35 = getelementptr inbounds nuw i8, ptr %34, i64 40
  store i32 1, ptr %35, align 8, !tbaa !70
  %36 = call ptr @getAofManifestAsString(ptr noundef nonnull %34)
  %37 = call i32 @writeAofManifestFile(ptr noundef %36)
  call void @sdsfree(ptr noundef %36) #20
  %38 = icmp eq i32 %37, 0
  br i1 %38, label %39, label %persistAofManifest.exit

39:                                               ; preds = %._crit_edge
  store i32 0, ptr %35, align 8, !tbaa !70
  br label %persistAofManifest.exit

persistAofManifest.exit:                          ; preds = %._crit_edge, %39
  %.0.i = phi i32 [ 0, %39 ], [ -1, %._crit_edge ]
  call void @llvm.lifetime.end.p0(i64 16, ptr nonnull %1) #20
  br label %40

40:                                               ; preds = %0, %6, %persistAofManifest.exit
  %.0 = phi i32 [ %.0.i, %persistAofManifest.exit ], [ 0, %6 ], [ 0, %0 ]
  ret i32 %.0
}